ccopy_reg
_reconstructor
p0
(csklearn.grid_search
GridSearchCV
p1
c__builtin__
object
p2
Ntp3
Rp4
(dp5
S'scoring'
p6
S'f1_weighted'
p7
sS'n_jobs'
p8
I1
sS'verbose'
p9
I5
sS'fit_params'
p10
(dp11
sS'refit'
p12
I00
sS'scorer_'
p13
g0
(csklearn.metrics.scorer
_PredictScorer
p14
g2
Ntp15
Rp16
(dp17
S'_kwargs'
p18
(dp19
sS'_score_func'
p20
cfunctools
partial
p21
(csklearn.metrics.classification
f1_score
p22
tp23
Rp24
(g22
(t(dp25
S'average'
p26
S'weighted'
p27
sS'pos_label'
p28
NsNtp29
bsS'_sign'
p30
I1
sbsS'iid'
p31
I01
sS'estimator'
p32
g0
(cRandomForest
EROSRandomForestClassifier
p33
g2
Ntp34
Rp35
(dp36
S'warm_start'
p37
I00
sS'base_estimator'
p38
g0
(csklearn.tree.tree
DecisionTreeClassifier
p39
g2
Ntp40
Rp41
(dp42
S'splitter'
p43
S'best'
p44
sS'tree_'
p45
NsS'n_features_'
p46
NsS'n_outputs_'
p47
NsS'n_classes_'
p48
NsS'random_state'
p49
NsS'classes_'
p50
NsS'max_features_'
p51
NsS'min_samples_leaf'
p52
I1
sS'max_features'
p53
NsS'min_weight_fraction_leaf'
p54
F0.0
sS'criterion'
p55
S'gini'
p56
sS'max_leaf_nodes'
p57
NsS'min_samples_split'
p58
I2
sS'max_depth'
p59
NsS'class_weight'
p60
NsbsS'estimators_'
p61
(lp62
sg8
I60
sg9
I0
sg49
NsS'bootstrap'
p63
I01
sS'oob_score'
p64
I00
sg52
I1
sS'n_estimators'
p65
I10
sg53
S'auto'
p66
sS'estimator_params'
p67
(S'criterion'
p68
S'max_depth'
p69
S'min_samples_split'
p70
S'min_samples_leaf'
p71
S'min_weight_fraction_leaf'
p72
S'max_features'
p73
S'max_leaf_nodes'
p74
S'random_state'
p75
tp76
sg55
g56
sg54
F0.0
sg57
Nsg58
I2
sg59
Nsg60
g66
sbsS'error_score'
p77
I0
sS'pre_dispatch'
p78
S'2*n_jobs'
p79
sS'grid_scores_'
p80
(lp81
g0
(csklearn.grid_search
_CVScoreTuple
p82
c__builtin__
tuple
p83
((dp84
g53
I2
sg65
I100
sg55
S'entropy'
p85
scnumpy.core.multiarray
scalar
p86
(cnumpy
dtype
p87
(S'f8'
p88
I0
I1
tp89
Rp90
(I3
S'<'
p91
NNNI-1
I-1
I0
tp92
bS'\x84\xd8vW\xb2\x83\xee?'
p93
tp94
Rp95
cnumpy.core.multiarray
_reconstruct
p96
(cnumpy
ndarray
p97
(I0
tp98
S'b'
p99
tp100
Rp101
(I1
(I3
tp102
g90
I00
S'{\x0e\x84\x7f\x1c\\\xee?t<\xebr\x07\xaf\xee?\xc7\xb9P\xa4\xf7\x7f\xee?'
p103
tp104
btp105
tp106
Rp107
ag0
(g82
g83
((dp108
g53
I2
sg65
I500
sg55
g85
sg86
(g90
S'\xd1\x90\x84\x05o\x82\xee?'
p109
tp110
Rp111
g96
(g97
(I0
tp112
g99
tp113
Rp114
(I1
(I3
tp115
g90
I00
S'\x80\xcb\x05\xc0\xf4]\xee?\x13\xf4U4I\xa8\xee?OqU]\x13\x81\xee?'
p116
tp117
btp118
tp119
Rp120
ag0
(g82
g83
((dp121
g53
I2
sg65
I1000
sg55
g85
sg86
(g90
S'V\xd2i\xda\xd4\x8a\xee?'
p122
tp123
Rp124
g96
(g97
(I0
tp125
g99
tp126
Rp127
(I1
(I3
tp128
g90
I00
S'\xb8\x13a\xbc\x8ec\xee?6\x98\xaa\x80\xea\xb1\xee?\xad*\xde\xf0\t\x8b\xee?'
p129
tp130
btp131
tp132
Rp133
ag0
(g82
g83
((dp134
g53
I2
sg65
I4000
sg55
g85
sg86
(g90
S'\x01\xe0hW\xbc\x85\xee?'
p135
tp136
Rp137
g96
(g97
(I0
tp138
g99
tp139
Rp140
(I1
(I3
tp141
g90
I00
S"\xaes\x84pB\\\xee?'\xddfK\xf9\xaf\xee?\xed\x9c\x83%\xfe\x84\xee?"
p142
tp143
btp144
tp145
Rp146
ag0
(g82
g83
((dp147
g53
I2
sg65
I7500
sg55
g85
sg86
(g90
S'|\xe0\xe1.\x9b\x86\xee?'
p148
tp149
Rp150
g96
(g97
(I0
tp151
g99
tp152
Rp153
(I1
(I3
tp154
g90
I00
S'\x0c\xd3m\xbbC`\xee?;k3\xd6\x83\xb2\xee?\xa7\xb1\x01[\x0e\x81\xee?'
p155
tp156
btp157
tp158
Rp159
ag0
(g82
g83
((dp160
g53
I10
sg65
I100
sg55
g85
sg86
(g90
S'\xc8xS,\xc2+\xef?'
p161
tp162
Rp163
g96
(g97
(I0
tp164
g99
tp165
Rp166
(I1
(I3
tp167
g90
I00
S'3\xb3\xdf\xa4\x1e\r\xef?\xf2\xe3y\xe1TD\xef?A^\xe0\xbc\xd61\xef?'
p168
tp169
btp170
tp171
Rp172
ag0
(g82
g83
((dp173
g53
I10
sg65
I500
sg55
g85
sg86
(g90
S'\xb6\x17S\xbaF4\xef?'
p174
tp175
Rp176
g96
(g97
(I0
tp177
g99
tp178
Rp179
(I1
(I3
tp180
g90
I00
S'\xaf\x93q\rj\x1a\xef?\xe6\nAh\xa9K\xef?\xbd\xd28\xd2\xc36\xef?'
p181
tp182
btp183
tp184
Rp185
ag0
(g82
g83
((dp186
g53
I10
sg65
I1000
sg55
g85
sg86
(g90
S'L\\\xff9\xef4\xef?'
p187
tp188
Rp189
g96
(g97
(I0
tp190
g99
tp191
Rp192
(I1
(I3
tp193
g90
I00
S'\xc5\xbd;\xebm\x1a\xef?!\xec=]\x85J\xef?\xa1\x10\x81\xa0\xdd9\xef?'
p194
tp195
btp196
tp197
Rp198
ag0
(g82
g83
((dp199
g53
I10
sg65
I4000
sg55
g85
sg86
(g90
S'j\xa1\xf3\x84\x015\xef?'
p200
tp201
Rp202
g96
(g97
(I0
tp203
g99
tp204
Rp205
(I1
(I3
tp206
g90
I00
S'|\x03\x15\xc1\xea\x1b\xef?4#\x03d|J\xef?\xd0*Cr\xa08\xef?'
p207
tp208
btp209
tp210
Rp211
ag0
(g82
g83
((dp212
g53
I10
sg65
I7500
sg55
g85
sg86
(g90
S'\xaa\xae8\xea\x8a5\xef?'
p213
tp214
Rp215
g96
(g97
(I0
tp216
g99
tp217
Rp218
(I1
(I3
tp219
g90
I00
S'$x\xd9l\x1b\x1c\xef?\xd70\xf8\x0e\xdaJ\xef?\x88\xff\xe2X\xae9\xef?'
p220
tp221
btp222
tp223
Rp224
ag0
(g82
g83
((dp225
g53
I50
sg65
I100
sg55
g85
sg86
(g90
S'\xde\x93\xde#\x92V\xef?'
p226
tp227
Rp228
g96
(g97
(I0
tp229
g99
tp230
Rp231
(I1
(I3
tp232
g90
I00
S'\x9f\xc0\xe2\xd0DM\xef?\xf0-V\xd5\xe2c\xef?\x85\x18\x16\xc5\x8fR\xef?'
p233
tp234
btp235
tp236
Rp237
ag0
(g82
g83
((dp238
g53
I50
sg65
I500
sg55
g85
sg86
(g90
S'\x16\x998\xe2\xd4X\xef?'
p239
tp240
Rp241
g96
(g97
(I0
tp242
g99
tp243
Rp244
(I1
(I3
tp245
g90
I00
S'\xb1\xd73\x81\xb8M\xef?\x13e\x16\x87\xe9`\xef?U\xb1\xde\xfe\xdd[\xef?'
p246
tp247
btp248
tp249
Rp250
ag0
(g82
g83
((dp251
g53
I50
sg65
I1000
sg55
g85
sg86
(g90
S'O\xfd$d\xa7X\xef?'
p252
tp253
Rp254
g96
(g97
(I0
tp255
g99
tp256
Rp257
(I1
(I3
tp258
g90
I00
S'\x16\xe8\xf6\x00\xadP\xef?\x98\xdd\xb6\xady`\xef?\xb3\x9b\xb6n\xd0X\xef?'
p259
tp260
btp261
tp262
Rp263
ag0
(g82
g83
((dp264
g53
I50
sg65
I4000
sg55
g85
sg86
(g90
S'\xc8P\xe9\xdd\x81X\xef?'
p265
tp266
Rp267
g96
(g97
(I0
tp268
g99
tp269
Rp270
(I1
(I3
tp271
g90
I00
S'\xad<\xa2\xe4\xecL\xef?[\xb0\x02\x15B^\xef?\x9cp\x9c\x1fX^\xef?'
p272
tp273
btp274
tp275
Rp276
ag0
(g82
g83
((dp277
g53
I50
sg65
I7500
sg55
g85
sg86
(g90
S'\x0f\x14u\xd0\xf4X\xef?'
p278
tp279
Rp280
g96
(g97
(I0
tp281
g99
tp282
Rp283
(I1
(I3
tp284
g90
I00
S'\xe9!\xcc\xee\xdeM\xef?\xbds\xef\x81e_\xef?[\x04\x17j\x9b]\xef?'
p285
tp286
btp287
tp288
Rp289
ag0
(g82
g83
((dp290
g53
I120
sg65
I100
sg55
g85
sg86
(g90
S'\xdb\xe9\x0e\x96\xadZ\xef?'
p291
tp292
Rp293
g96
(g97
(I0
tp294
g99
tp295
Rp296
(I1
(I3
tp297
g90
I00
S"P\xf8\x9e\xb1\xbcT\xef?\x98'\xb7\xac\x1e`\xef?\xbe\xd4\x92\x19.[\xef?"
p298
tp299
btp300
tp301
Rp302
ag0
(g82
g83
((dp303
g53
I120
sg65
I500
sg55
g85
sg86
(g90
S'\xee\xc3\xf2\xc6*Z\xef?'
p304
tp305
Rp306
g96
(g97
(I0
tp307
g99
tp308
Rp309
(I1
(I3
tp310
g90
I00
S'\xce\xee\x94\xcfGU\xef?q+\xb3\x1a\xec^\xef?\x9b?]\xfeLZ\xef?'
p311
tp312
btp313
tp314
Rp315
ag0
(g82
g83
((dp316
g53
I120
sg65
I1000
sg55
g85
sg86
(g90
S'\xa1\x83\xbcb\xc1\\\xef?'
p317
tp318
Rp319
g96
(g97
(I0
tp320
g99
tp321
Rp322
(I1
(I3
tp323
g90
I00
S';8\xbaV\x15Y\xef?\xb3\xa6\xb8\n\x9cd\xef?5\xbd\x11\x1c\x93X\xef?'
p324
tp325
btp326
tp327
Rp328
ag0
(g82
g83
((dp329
g53
I120
sg65
I4000
sg55
g85
sg86
(g90
S'\x10\xb0ZX\xd7Z\xef?'
p330
tp331
Rp332
g96
(g97
(I0
tp333
g99
tp334
Rp335
(I1
(I3
tp336
g90
I00
S'`\x0cQ\xf5\xd5W\xef?\xfcK-\xbd"a\xef?{\x0b2\x9d\x8dW\xef?'
p337
tp338
btp339
tp340
Rp341
ag0
(g82
g83
((dp342
g53
I120
sg65
I7500
sg55
g85
sg86
(g90
S'5\x1d>\x07X[\xef?'
p343
tp344
Rp345
g96
(g97
(I0
tp346
g99
tp347
Rp348
(I1
(I3
tp349
g90
I00
S'\xc1\x1a\xb2\x00\xdbW\xef?\xca\xdd=r[_\xef?\xab\xf1\x93\x08\xd2Z\xef?'
p350
tp351
btp352
tp353
Rp354
ag0
(g82
g83
((dp355
g53
I180
sg65
I100
sg55
g85
sg86
(g90
S'\xae\x11 \xa69T\xef?'
p356
tp357
Rp358
g96
(g97
(I0
tp359
g99
tp360
Rp361
(I1
(I3
tp362
g90
I00
S'Q\x12\x8cj\x1fX\xef?1\xd7\xd1CwQ\xef?!\xc7\xe7\xc7\x15S\xef?'
p363
tp364
btp365
tp366
Rp367
ag0
(g82
g83
((dp368
g53
I180
sg65
I500
sg55
g85
sg86
(g90
S'\xb2*Z\xa2\xb1Q\xef?'
p369
tp370
Rp371
g96
(g97
(I0
tp372
g99
tp373
Rp374
(I1
(I3
tp375
g90
I00
S'\xc2!^\x93\x86S\xef?\xc3\xb8\xb1\xa6\xeeM\xef?|c\x7f\x81\x9fS\xef?'
p376
tp377
btp378
tp379
Rp380
ag0
(g82
g83
((dp381
g53
I180
sg65
I1000
sg55
g85
sg86
(g90
S'B\x9fA4\xcdQ\xef?'
p382
tp383
Rp384
g96
(g97
(I0
tp385
g99
tp386
Rp387
(I1
(I3
tp388
g90
I00
S'\xdc\r\x1f\xae\x91S\xef?&\x89\xdd@\xf5M\xef?l\x9a\x19\x85\xe0S\xef?'
p389
tp390
btp391
tp392
Rp393
ag0
(g82
g83
((dp394
g53
I180
sg65
I4000
sg55
g85
sg86
(g90
S'I <VJS\xef?'
p395
tp396
Rp397
g96
(g97
(I0
tp398
g99
tp399
Rp400
(I1
(I3
tp401
g90
I00
S'\xafXjb\x10R\xef??\x89\xcd*\xafQ\xef?\x95\x91l\xab\x1fV\xef?'
p402
tp403
btp404
tp405
Rp406
ag0
(g82
g83
((dp407
g53
I180
sg65
I7500
sg55
g85
sg86
(g90
S')Jg\xc2\x86S\xef?'
p408
tp409
Rp410
g96
(g97
(I0
tp411
g99
tp412
Rp413
(I1
(I3
tp414
g90
I00
S'A\xc7\xc0\xbb\x12R\xef?e\xcf<\xb1"S\xef?G\x04\t\x11_U\xef?'
p415
tp416
btp417
tp418
Rp419
asS'best_params_'
p420
g316
sS'best_score_'
p421
g319
sS'param_grid'
p422
(dp423
g65
(lp424
I100
aI500
aI1000
aI4000
aI7500
asg53
(lp425
I2
aI10
aI50
aI120
aI180
asg55
(lp426
g85
assS'cv'
p427
I3
sb.